(dp0
Vf476d134-abe9-4321-b017-f0cf3a9d1300
p1
ccopy_reg
_reconstructor
p2
(cuuid
UUID
p3
c__builtin__
object
p4
Ntp5
Rp6
(dp7
S'int'
p8
L284230208622331846192865691514138105211L
sbsVd9677c71-41a1-417c-a127-313195717825
p9
g2
(g3
g4
Ntp10
Rp11
(dp12
g8
L305964413603856937171010063425588070458L
sbsV78d1cf47-acc6-4bc9-b7c3-1c8b53d2c449
p13
g2
(g3
g4
Ntp14
Rp15
(dp16
g8
L312071960966970627257904848196311436381L
sbsV10483a68-c1fe-47bc-9007-c01783304947
p17
g2
(g3
g4
Ntp18
Rp19
(dp20
g8
L220285600733799877767579600784863895700L
sbsV0ac30d84-8ccf-41fb-8ef8-e5f0609c6bcb
p21
g2
(g3
g4
Ntp22
Rp23
(dp24
g8
L49779536887536281756929502610664143236L
sbsV282e0384-7a48-41bd-a872-254f6f247bff
p25
g2
(g3
g4
Ntp26
Rp27
(dp28
g8
L148059564636145316432566348019291221963L
sbsVb9143fe9-88af-4dc5-8596-454e6ab320da
p29
g2
(g3
g4
Ntp30
Rp31
(dp32
g8
L331694434705040035824494803795501130577L
sbsV4d71e713-4648-43d4-8748-e0200ccc648a
p33
g2
(g3
g4
Ntp34
Rp35
(dp36
g8
L221000687858562635252791037213722370498L
sbsV83a01dbb-f27a-4592-9091-d5d663687ba6
p37
g2
(g3
g4
Ntp38
Rp39
(dp40
g8
L34352916015592222614604665439813156156L
sbsV9ff23203-8667-4b71-b0f9-e342870fd3ea
p41
g2
(g3
g4
Ntp42
Rp43
(dp44
g8
L302406747002527620455932397961621969975L
sbsV679a7dc6-0ee7-4901-bd48-58613b811fc8
p45
g2
(g3
g4
Ntp46
Rp47
(dp48
g8
L295133801165697665968782089573657656426L
sbsVd2a8571b-ef70-46ee-8a83-fab4868767fb
p49
g2
(g3
g4
Ntp50
Rp51
(dp52
g8
L9790967089631952109522863619094128789L
sbsVa786ba8d-a480-452d-a228-38454c8fc191
p53
g2
(g3
g4
Ntp54
Rp55
(dp56
g8
L147117364054535320561401584474630872350L
sbsVc839a9e8-3ded-413d-8f91-a2f35a071402
p57
g2
(g3
g4
Ntp58
Rp59
(dp60
g8
L217291895466859502353500414361391960321L
sbsVef8b191e-4756-4b93-846e-b84aaa0b5b8e
p61
g2
(g3
g4
Ntp62
Rp63
(dp64
g8
L106028212342362963401119216776568911526L
sbsVd957f19d-2712-40cf-bb72-cd56a1f796cd
p65
g2
(g3
g4
Ntp66
Rp67
(dp68
g8
L292833233131215380521986333897641066537L
sbsV1d48dd93-f621-4198-a93b-3622c93bf992
p69
g2
(g3
g4
Ntp70
Rp71
(dp72
g8
L192102654816909789419451535396651385710L
sbsVd67d40df-124d-4673-8a89-aa71702e2bbc
p73
g2
(g3
g4
Ntp74
Rp75
(dp76
g8
L329723755634306273697908368675540509610L
sbsV9997536e-2876-4943-85b9-9c36c96439c7
p77
g2
(g3
g4
Ntp78
Rp79
(dp80
g8
L85117424747589433778075466311119311363L
sbsVbc3b3868-f0e9-41e8-9840-0c1a9db9727b
p81
g2
(g3
g4
Ntp82
Rp83
(dp84
g8
L294753098588184358859902908216220948255L
sbsV3b4ebb67-5165-4a55-8de6-e76100bfdc75
p85
g2
(g3
g4
Ntp86
Rp87
(dp88
g8
L55860993735550237420618795753430647060L
sbsV1f3204c4-ac52-423a-b67e-3614cc58165a
p89
g2
(g3
g4
Ntp90
Rp91
(dp92
g8
L287935817222025008304829544166621559108L
sbsVf77485b9-376e-4689-87d2-dcb3cf7c59e2
p93
g2
(g3
g4
Ntp94
Rp95
(dp96
g8
L104328504683246531232681665382497224143L
sbsVf5bc45c2-b893-4b2b-9c97-0b24b387a6a3
p97
g2
(g3
g4
Ntp98
Rp99
(dp100
g8
L5962945116969965227735174154915754439L
sbsVf1f2e67d-307e-46f1-8064-e41c0ca66e70
p101
g2
(g3
g4
Ntp102
Rp103
(dp104
g8
L77112196700103620340458498967271452250L
sbsVc3faf822-d511-4d96-a19b-fe4824289578
p105
g2
(g3
g4
Ntp106
Rp107
(dp108
g8
L39587605217687647787642773618560350364L
sbsVc0eb6803-68e4-48c6-ba68-11e410777063
p109
g2
(g3
g4
Ntp110
Rp111
(dp112
g8
L327239174753635239173698500018316673445L
sbsV3e479fa5-24db-4efd-a220-8cebcd67d41b
p113
g2
(g3
g4
Ntp114
Rp115
(dp116
g8
L179968836496045080980616306039655797687L
sbsV7911cc5a-c94f-44a7-969c-c31ffc36583a
p117
g2
(g3
g4
Ntp118
Rp119
(dp120
g8
L166598231153668383069377081383779799451L
sbsV9754e797-b445-4c60-a1fb-6d2d80179a1b
p121
g2
(g3
g4
Ntp122
Rp123
(dp124
g8
L261952174814453277558628702110615019268L
sbsV3b76ebe4-cd8c-4ec8-bd35-a4a4fd649705
p125
g2
(g3
g4
Ntp126
Rp127
(dp128
g8
L80713263994003770820183800797702913221L
sbsV4458d04a-8989-47ea-ba16-dfb2ca82d5c1
p129
g2
(g3
g4
Ntp130
Rp131
(dp132
g8
L101337815551792318776499933093295492560L
sbsV8034b055-ade3-4c38-b683-f8b72f9e3659
p133
g2
(g3
g4
Ntp134
Rp135
(dp136
g8
L169548520102913421005425109996457464743L
sbsV5311040d-c6c0-4b07-bab0-3a3ab4601ef8
p137
g2
(g3
g4
Ntp138
Rp139
(dp140
g8
L329340556368422014999945914479426792832L
sbsS'33d99a82-2463-458f-96b5-20fbf0ec36dc'
p141
S'piggybank123456789'
p142
sV3130b9fb-09a8-4791-adf9-62d10e19e71d
p143
g2
(g3
g4
Ntp144
Rp145
(dp146
g8
L46775659130100625442822416566705815426L
sbsVaf76cc3e-8cb8-46b2-91af-35439792baa5
p147
g2
(g3
g4
Ntp148
Rp149
(dp150
g8
L48848797443289853638421157482769400169L
sbsVc8c87e52-0449-4df7-8fbd-9cc7e76c37f0
p151
g2
(g3
g4
Ntp152
Rp153
(dp154
g8
L113642781740327656938014163488766831685L
sbsV39428046-3bdb-496f-a3d5-106712ee0119
p155
g2
(g3
g4
Ntp156
Rp157
(dp158
g8
L204127409566479532459223747549180945151L
sbsV7d1e5256-8753-4d2f-ab96-a1f8cd88c713
p159
g2
(g3
g4
Ntp160
Rp161
(dp162
g8
L140305459996490446974962935946565127936L
sbsV4e175b1f-dfa8-4e6a-a25c-096332725e2e
p163
g2
(g3
g4
Ntp164
Rp165
(dp166
g8
L23533490250490329057652914457870963288L
sbsVbd9ceb8b-f03d-4a0f-8194-c3e0b0e0b8dd
p167
g2
(g3
g4
Ntp168
Rp169
(dp170
g8
L307116081710294685175170927199781301656L
sbs.